; Function Attrs: null_pointer_is_valid sspstrong uwtable
define internal fastcc i32 @samr_dissect_DispInfo(ptr noundef %0, i32 noundef %1, ptr noundef %2, ptr noundef %3, ptr noundef %4, ptr noundef %5, i32 noundef %6) unnamed_addr #0 {
  %8 = alloca ptr, align 8
  %9 = alloca i16, align 2
  call void @llvm.lifetime.start.p0(i64 8, ptr nonnull %8) #5
  store ptr null, ptr %8, align 8
  call void @llvm.lifetime.start.p0(i64 2, ptr nonnull %9) #5
  %.not = icmp eq ptr %3, null
  br i1 %.not, label %13, label %10

10:                                               ; preds = %7
  %11 = load i32, ptr @ett_samr_samr_DispInfo, align 4
  %12 = call ptr @proto_tree_add_subtree(ptr noundef nonnull %3, ptr noundef %0, i32 noundef %1, i32 noundef -1, i32 noundef %11, ptr noundef nonnull %8, ptr noundef nonnull @.str.1324)
  br label %13

13:                                               ; preds = %10, %7
  %.051 = phi ptr [ %12, %10 ], [ null, %7 ]
  %14 = call i32 @dissect_ndr_uint16(ptr noundef %0, i32 noundef %1, ptr noundef %2, ptr noundef %.051, ptr noundef %4, ptr noundef %5, i32 noundef %6, ptr noundef nonnull %9)
  %15 = getelementptr inbounds nuw i8, ptr %4, i64 64
  %16 = load ptr, ptr %15, align 8
  %17 = getelementptr inbounds nuw i8, ptr %16, i64 96
  %18 = load i32, ptr %17, align 8
  %19 = and i32 %18, 1
  %.not53 = icmp eq i32 %19, 0
  %20 = getelementptr inbounds nuw i8, ptr %4, i64 25
  %21 = load i8, ptr %20, align 1, !range !6, !noundef !7
  %22 = trunc nuw i8 %21 to i1
  br i1 %.not53, label %28, label %23

23:                                               ; preds = %13
  %24 = and i32 %14, 7
  %.not55 = icmp eq i32 %24, 0
  %or.cond = select i1 %22, i1 true, i1 %.not55
  br i1 %or.cond, label %33, label %25

25:                                               ; preds = %23
  %26 = and i32 %14, -8
  %27 = add i32 %26, 8
  br label %33

28:                                               ; preds = %13
  %29 = and i32 %14, 3
  %.not54 = icmp eq i32 %29, 0
  %or.cond56 = select i1 %22, i1 true, i1 %.not54
  br i1 %or.cond56, label %33, label %30

30:                                               ; preds = %28
  %31 = and i32 %14, -4
  %32 = add i32 %31, 4
  br label %33

33:                                               ; preds = %28, %30, %23, %25
  %.0 = phi i32 [ %14, %23 ], [ %27, %25 ], [ %14, %28 ], [ %32, %30 ]
  %34 = load i16, ptr %9, align 2
  switch i16 %34, label %50 [
    i16 1, label %35
    i16 2, label %38
    i16 3, label %41
    i16 4, label %44
    i16 5, label %47
  ]

35:                                               ; preds = %33
  %36 = load i32, ptr @hf_samr_samr_DispInfo_info1, align 4
  %37 = call i32 @samr_dissect_struct_DispInfoGeneral(ptr noundef %0, i32 noundef %.0, ptr noundef %2, ptr noundef %.051, ptr noundef %4, ptr noundef %5, i32 noundef %36, i32 poison)
  br label %50

38:                                               ; preds = %33
  %39 = load i32, ptr @hf_samr_samr_DispInfo_info2, align 4
  %40 = call i32 @samr_dissect_struct_DispInfoFull(ptr noundef %0, i32 noundef %.0, ptr noundef %2, ptr noundef %.051, ptr noundef %4, ptr noundef %5, i32 noundef %39, i32 poison)
  br label %50

41:                                               ; preds = %33
  %42 = load i32, ptr @hf_samr_samr_DispInfo_info3, align 4
  %43 = call i32 @samr_dissect_struct_DispInfoFullGroups(ptr noundef %0, i32 noundef %.0, ptr noundef %2, ptr noundef %.051, ptr noundef %4, ptr noundef %5, i32 noundef %42, i32 poison)
  br label %50

44:                                               ; preds = %33
  %45 = load i32, ptr @hf_samr_samr_DispInfo_info4, align 4
  %46 = call i32 @samr_dissect_struct_DispInfoAscii(ptr noundef %0, i32 noundef %.0, ptr noundef %2, ptr noundef %.051, ptr noundef %4, ptr noundef %5, i32 noundef %45, i32 poison)
  br label %50

47:                                               ; preds = %33
  %48 = load i32, ptr @hf_samr_samr_DispInfo_info5, align 4
  %49 = call i32 @samr_dissect_struct_DispInfoAscii(ptr noundef %0, i32 noundef %.0, ptr noundef %2, ptr noundef %.051, ptr noundef %4, ptr noundef %5, i32 noundef %48, i32 poison)
  br label %50

50:                                               ; preds = %47, %44, %41, %38, %35, %33
  %.1 = phi i32 [ %.0, %33 ], [ %49, %47 ], [ %46, %44 ], [ %43, %41 ], [ %40, %38 ], [ %37, %35 ]
  %51 = load ptr, ptr %8, align 8
  %52 = sub i32 %.1, %1
  call void @proto_item_set_len(ptr noundef %51, i32 noundef %52)
  call void @llvm.lifetime.end.p0(i64 2, ptr nonnull %9) #5
  call void @llvm.lifetime.end.p0(i64 8, ptr nonnull %8) #5
  ret i32 %.1
}